target datalayout = "e-m:e-p270:32:32-p271:32:32-p272:64:64-i64:64-i128:128-f80:128-n8:16:32:64-S128"
target triple = "x86_64-pc-linux-gnu"

%struct.Tamarama = type { i32, i8, [27 x i8] }
%struct.mq = type { ptr, i32, i32, ptr, ptr, i64, ptr, i64, ptr, i64, ptr, i8, ptr, ptr, [10 x %struct.mq_item] }
%struct.mq_item = type { i32, i64, i64 }
%struct.unaligned = type { i32 }
%struct.unaligned.0 = type { i16 }

; Function Attrs: alwaysinline nounwind uwtable
define internal zeroext i16 @unaligned_load_u16(ptr noundef %0) #2 {
  %2 = alloca ptr, align 8
  %3 = alloca ptr, align 8
  store ptr %0, ptr %2, align 8
  call void @llvm.lifetime.start.p0(i64 8, ptr %3) #5
  %4 = load ptr, ptr %2, align 8
  store ptr %4, ptr %3, align 8
  %5 = load ptr, ptr %3, align 8
  %6 = getelementptr inbounds nuw %struct.unaligned.0, ptr %5, i32 0, i32 0
  %7 = load i16, ptr %6, align 1
  call void @llvm.lifetime.end.p0(i64 8, ptr %3) #5
  ret i16 %7
}

; Function Attrs: alwaysinline nounwind uwtable
define internal i32 @unaligned_load_u32(ptr noundef %0) #2 {
  %2 = alloca ptr, align 8
  %3 = alloca ptr, align 8
  store ptr %0, ptr %2, align 8
  call void @llvm.lifetime.start.p0(i64 8, ptr %3) #5
  %4 = load ptr, ptr %2, align 8
  store ptr %4, ptr %3, align 8
  %5 = load ptr, ptr %3, align 8
  %6 = getelementptr inbounds nuw %struct.unaligned, ptr %5, i32 0, i32 0
  %7 = load i32, ptr %6, align 1
  call void @llvm.lifetime.end.p0(i64 8, ptr %3) #5
  ret i32 %7
}

; Function Attrs: alwaysinline nounwind uwtable
define internal void @copyQueueProperties(ptr noundef %0, ptr noundef %1, i32 noundef %2) #2 {
  %4 = alloca ptr, align 8
  %5 = alloca ptr, align 8
  %6 = alloca i32, align 4
  store ptr %0, ptr %4, align 8
  store ptr %1, ptr %5, align 8
  store i32 %2, ptr %6, align 4
  %7 = load ptr, ptr %4, align 8
  %8 = getelementptr inbounds nuw %struct.mq, ptr %7, i32 0, i32 3
  %9 = load ptr, ptr %8, align 8
  %10 = load ptr, ptr %5, align 8
  %11 = getelementptr inbounds nuw %struct.mq, ptr %10, i32 0, i32 3
  store ptr %9, ptr %11, align 8
  %12 = load ptr, ptr %4, align 8
  %13 = getelementptr inbounds nuw %struct.mq, ptr %12, i32 0, i32 4
  %14 = load ptr, ptr %13, align 8
  %15 = load i32, ptr %6, align 4
  %16 = zext i32 %15 to i64
  %17 = getelementptr inbounds nuw i8, ptr %14, i64 %16
  %18 = load ptr, ptr %5, align 8
  %19 = getelementptr inbounds nuw %struct.mq, ptr %18, i32 0, i32 4
  store ptr %17, ptr %19, align 8
  %20 = load ptr, ptr %4, align 8
  %21 = getelementptr inbounds nuw %struct.mq, ptr %20, i32 0, i32 5
  %22 = load i64, ptr %21, align 8
  %23 = load ptr, ptr %5, align 8
  %24 = getelementptr inbounds nuw %struct.mq, ptr %23, i32 0, i32 5
  store i64 %22, ptr %24, align 8
  %25 = load ptr, ptr %4, align 8
  %26 = getelementptr inbounds nuw %struct.mq, ptr %25, i32 0, i32 6
  %27 = load ptr, ptr %26, align 8
  %28 = load ptr, ptr %5, align 8
  %29 = getelementptr inbounds nuw %struct.mq, ptr %28, i32 0, i32 6
  store ptr %27, ptr %29, align 8
  %30 = load ptr, ptr %4, align 8
  %31 = getelementptr inbounds nuw %struct.mq, ptr %30, i32 0, i32 7
  %32 = load i64, ptr %31, align 8
  %33 = load ptr, ptr %5, align 8
  %34 = getelementptr inbounds nuw %struct.mq, ptr %33, i32 0, i32 7
  store i64 %32, ptr %34, align 8
  %35 = load ptr, ptr %4, align 8
  %36 = getelementptr inbounds nuw %struct.mq, ptr %35, i32 0, i32 8
  %37 = load ptr, ptr %36, align 8
  %38 = load ptr, ptr %5, align 8
  %39 = getelementptr inbounds nuw %struct.mq, ptr %38, i32 0, i32 8
  store ptr %37, ptr %39, align 8
  %40 = load ptr, ptr %4, align 8
  %41 = getelementptr inbounds nuw %struct.mq, ptr %40, i32 0, i32 9
  %42 = load i64, ptr %41, align 8
  %43 = load ptr, ptr %5, align 8
  %44 = getelementptr inbounds nuw %struct.mq, ptr %43, i32 0, i32 9
  store i64 %42, ptr %44, align 8
  %45 = load ptr, ptr %4, align 8
  %46 = getelementptr inbounds nuw %struct.mq, ptr %45, i32 0, i32 12
  %47 = load ptr, ptr %46, align 8
  %48 = load ptr, ptr %5, align 8
  %49 = getelementptr inbounds nuw %struct.mq, ptr %48, i32 0, i32 12
  store ptr %47, ptr %49, align 8
  %50 = load ptr, ptr %4, align 8
  %51 = getelementptr inbounds nuw %struct.mq, ptr %50, i32 0, i32 13
  %52 = load ptr, ptr %51, align 8
  %53 = load ptr, ptr %5, align 8
  %54 = getelementptr inbounds nuw %struct.mq, ptr %53, i32 0, i32 13
  store ptr %52, ptr %54, align 8
  %55 = load ptr, ptr %4, align 8
  %56 = getelementptr inbounds nuw %struct.mq, ptr %55, i32 0, i32 10
  %57 = load ptr, ptr %56, align 8
  %58 = load ptr, ptr %5, align 8
  %59 = getelementptr inbounds nuw %struct.mq, ptr %58, i32 0, i32 10
  store ptr %57, ptr %59, align 8
  %60 = load ptr, ptr %4, align 8
  %61 = getelementptr inbounds nuw %struct.mq, ptr %60, i32 0, i32 11
  %62 = load i8, ptr %61, align 8
  %63 = load ptr, ptr %5, align 8
  %64 = getelementptr inbounds nuw %struct.mq, ptr %63, i32 0, i32 11
  store i8 %62, ptr %64, align 8
  ret void
}

; Function Attrs: alwaysinline nounwind uwtable
define internal i32 @getSubOffset(ptr noundef %0, i32 noundef %1) #2 {
  %3 = alloca ptr, align 8
  %4 = alloca i32, align 4
  %5 = alloca ptr, align 8
  store ptr %0, ptr %3, align 8
  store i32 %1, ptr %4, align 4
  br label %6

6:                                                ; preds = %2
  br label %7

7:                                                ; preds = %6
  call void @llvm.lifetime.start.p0(i64 8, ptr %5) #5
  %8 = load ptr, ptr %3, align 8
  %9 = getelementptr inbounds nuw i8, ptr %8, i64 32
  %10 = load ptr, ptr %3, align 8
  %11 = getelementptr inbounds nuw %struct.Tamarama, ptr %10, i32 0, i32 0
  %12 = load i32, ptr %11, align 32
  %13 = zext i32 %12 to i64
  %14 = mul i64 %13, 4
  %15 = getelementptr inbounds nuw i8, ptr %9, i64 %14
  store ptr %15, ptr %5, align 8
  %16 = load ptr, ptr %5, align 8
  %17 = load i32, ptr %4, align 4
  %18 = zext i32 %17 to i64
  %19 = getelementptr inbounds nuw i32, ptr %16, i64 %18
  %20 = load i32, ptr %19, align 4
  call void @llvm.lifetime.end.p0(i64 8, ptr %5) #5
  ret i32 %20
}

; Function Attrs: alwaysinline nounwind uwtable
define internal i32 @partial_load_u32(ptr noundef %0, i32 noundef %1) #2 {
  %3 = alloca i32, align 4
  %4 = alloca ptr, align 8
  %5 = alloca i32, align 4
  %6 = alloca i32, align 4
  %7 = alloca i32, align 4
  store ptr %0, ptr %4, align 8
  store i32 %1, ptr %5, align 4
  call void @llvm.lifetime.start.p0(i64 4, ptr %6) #5
  %8 = load i32, ptr %5, align 4
  switch i32 %8, label %35 [
    i32 4, label %9
    i32 3, label %13
    i32 2, label %25
    i32 1, label %30
    i32 0, label %35
  ]

9:                                                ; preds = %2
  %10 = load ptr, ptr %4, align 8
  %11 = call i32 @unaligned_load_u32(ptr noundef %10)
  store i32 %11, ptr %6, align 4
  %12 = load i32, ptr %6, align 4
  store i32 %12, ptr %3, align 4
  store i32 1, ptr %7, align 4
  br label %36

13:                                               ; preds = %2
  %14 = load ptr, ptr %4, align 8
  %15 = call zeroext i16 @unaligned_load_u16(ptr noundef %14)
  %16 = zext i16 %15 to i32
  store i32 %16, ptr %6, align 4
  %17 = load ptr, ptr %4, align 8
  %18 = getelementptr inbounds i8, ptr %17, i64 2
  %19 = load i8, ptr %18, align 1
  %20 = zext i8 %19 to i32
  %21 = shl i32 %20, 16
  %22 = load i32, ptr %6, align 4
  %23 = or i32 %22, %21
  store i32 %23, ptr %6, align 4
  %24 = load i32, ptr %6, align 4
  store i32 %24, ptr %3, align 4
  store i32 1, ptr %7, align 4
  br label %36

25:                                               ; preds = %2
  %26 = load ptr, ptr %4, align 8
  %27 = call zeroext i16 @unaligned_load_u16(ptr noundef %26)
  %28 = zext i16 %27 to i32
  store i32 %28, ptr %6, align 4
  %29 = load i32, ptr %6, align 4
  store i32 %29, ptr %3, align 4
  store i32 1, ptr %7, align 4
  br label %36

30:                                               ; preds = %2
  %31 = load ptr, ptr %4, align 8
  %32 = load i8, ptr %31, align 1
  %33 = zext i8 %32 to i32
  store i32 %33, ptr %6, align 4
  %34 = load i32, ptr %6, align 4
  store i32 %34, ptr %3, align 4
  store i32 1, ptr %7, align 4
  br label %36

35:                                               ; preds = %2, %2
  store i32 0, ptr %3, align 4
  store i32 1, ptr %7, align 4
  br label %36

36:                                               ; preds = %35, %30, %25, %13, %9
  call void @llvm.lifetime.end.p0(i64 4, ptr %6) #5
  %37 = load i32, ptr %3, align 4
  ret i32 %37
}

; Function Attrs: nounwind uwtable
define internal void @copyQueue(ptr noundef %0, ptr noundef %1, ptr noundef %2, ptr noundef %3, i32 noundef %4) #0 {
  %6 = alloca ptr, align 8
  %7 = alloca ptr, align 8
  %8 = alloca ptr, align 8
  %9 = alloca ptr, align 8
  %10 = alloca i32, align 4
  %11 = alloca i32, align 4
  store ptr %0, ptr %6, align 8
  store ptr %1, ptr %7, align 8
  store ptr %2, ptr %8, align 8
  store ptr %3, ptr %9, align 8
  store i32 %4, ptr %10, align 4
  %12 = load ptr, ptr %8, align 8
  %13 = load ptr, ptr %9, align 8
  %14 = load ptr, ptr %6, align 8
  %15 = getelementptr inbounds nuw %struct.Tamarama, ptr %14, i32 0, i32 1
  %16 = load i8, ptr %15, align 4
  %17 = zext i8 %16 to i32
  call void @copyQueueProperties(ptr noundef %12, ptr noundef %13, i32 noundef %17)
  call void @llvm.lifetime.start.p0(i64 4, ptr %11) #5
  %18 = load ptr, ptr %8, align 8
  %19 = getelementptr inbounds nuw %struct.mq, ptr %18, i32 0, i32 1
  %20 = load i32, ptr %19, align 8
  %21 = add i32 %20, 1
  store i32 %21, ptr %19, align 8
  store i32 %20, ptr %11, align 4
  %22 = load i32, ptr %11, align 4
  %23 = load ptr, ptr %9, align 8
  %24 = getelementptr inbounds nuw %struct.mq, ptr %23, i32 0, i32 1
  store i32 %22, ptr %24, align 8
  %25 = load ptr, ptr %9, align 8
  %26 = getelementptr inbounds nuw %struct.mq, ptr %25, i32 0, i32 14
  %27 = load i32, ptr %11, align 4
  %28 = zext i32 %27 to i64
  %29 = getelementptr inbounds nuw [10 x %struct.mq_item], ptr %26, i64 0, i64 %28
  %30 = load ptr, ptr %8, align 8
  %31 = getelementptr inbounds nuw %struct.mq, ptr %30, i32 0, i32 14
  %32 = load i32, ptr %11, align 4
  %33 = zext i32 %32 to i64
  %34 = getelementptr inbounds nuw [10 x %struct.mq_item], ptr %31, i64 0, i64 %33
  call void @llvm.memcpy.p0.p0.i64(ptr align 8 %29, ptr align 8 %34, i64 24, i1 false)
  %35 = load i32, ptr %11, align 4
  %36 = add i32 %35, 1
  %37 = load ptr, ptr %9, align 8
  %38 = getelementptr inbounds nuw %struct.mq, ptr %37, i32 0, i32 2
  store i32 %36, ptr %38, align 4
  %39 = load ptr, ptr %6, align 8
  %40 = load ptr, ptr %7, align 8
  %41 = load ptr, ptr %8, align 8
  %42 = load ptr, ptr %9, align 8
  %43 = load i32, ptr %10, align 4
  call void @copyQueueItems(ptr noundef %39, ptr noundef %40, ptr noundef %41, ptr noundef %42, i32 noundef %43)
  %44 = load i32, ptr %11, align 4
  %45 = load ptr, ptr %8, align 8
  %46 = getelementptr inbounds nuw %struct.mq, ptr %45, i32 0, i32 1
  store i32 %44, ptr %46, align 8
  call void @llvm.lifetime.end.p0(i64 4, ptr %11) #5
  ret void
}

; Function Attrs: nounwind uwtable
define internal ptr @getSubEngine(ptr noundef %0, i32 noundef %1) #0 {
  %3 = alloca ptr, align 8
  %4 = alloca i32, align 4
  %5 = alloca i32, align 4
  %6 = alloca ptr, align 8
  store ptr %0, ptr %3, align 8
  store i32 %1, ptr %4, align 4
  call void @llvm.lifetime.start.p0(i64 4, ptr %5) #5
  %7 = load ptr, ptr %3, align 8
  %8 = load i32, ptr %4, align 4
  %9 = call i32 @getSubOffset(ptr noundef %7, i32 noundef %8)
  store i32 %9, ptr %5, align 4
  br label %10

10:                                               ; preds = %2
  br label %11

11:                                               ; preds = %10
  br label %12

12:                                               ; preds = %11
  call void @llvm.lifetime.start.p0(i64 8, ptr %6) #5
  %13 = load ptr, ptr %3, align 8
  store ptr %13, ptr %6, align 8
  %14 = load ptr, ptr %6, align 8
  %15 = load i32, ptr %5, align 4
  %16 = zext i32 %15 to i64
  %17 = getelementptr inbounds nuw i8, ptr %14, i64 %16
  call void @llvm.lifetime.end.p0(i64 8, ptr %6) #5
  call void @llvm.lifetime.end.p0(i64 4, ptr %5) #5
  ret ptr %17
}

; Function Attrs: nounwind uwtable
define internal i32 @loadActiveIdx(ptr noundef %0, i32 noundef %1) #0 {
  %3 = alloca ptr, align 8
  %4 = alloca i32, align 4
  store ptr %0, ptr %3, align 8
  store i32 %1, ptr %4, align 4
  %5 = load ptr, ptr %3, align 8
  %6 = load i32, ptr %4, align 4
  %7 = call i32 @partial_load_u32(ptr noundef %5, i32 noundef %6)
  ret i32 %7
}

; Function Attrs: nounwind uwtable
define hidden signext i8 @nfaExecTamarama_reportCurrent(ptr noundef %0, ptr noundef %1) #0 {
  %3 = alloca i8, align 1
  %4 = alloca ptr, align 8
  %5 = alloca ptr, align 8
  %6 = alloca ptr, align 8
  %7 = alloca i32, align 4
  %8 = alloca i32, align 4
  %9 = alloca ptr, align 8
  %10 = alloca %struct.mq, align 8
  store ptr %0, ptr %4, align 8
  store ptr %1, ptr %5, align 8
  call void @llvm.lifetime.start.p0(i64 8, ptr %6) #5
  %11 = load ptr, ptr %4, align 8
  %12 = getelementptr inbounds nuw i8, ptr %11, i64 64
  store ptr %12, ptr %6, align 8
  call void @llvm.lifetime.start.p0(i64 4, ptr %7) #5
  %13 = load ptr, ptr %5, align 8
  %14 = getelementptr inbounds nuw %struct.mq, ptr %13, i32 0, i32 4
  %15 = load ptr, ptr %14, align 8
  %16 = load ptr, ptr %6, align 8
  %17 = getelementptr inbounds nuw %struct.Tamarama, ptr %16, i32 0, i32 1
  %18 = load i8, ptr %17, align 4
  %19 = zext i8 %18 to i32
  %20 = call i32 @loadActiveIdx(ptr noundef %15, i32 noundef %19)
  store i32 %20, ptr %7, align 4
  %21 = load i32, ptr %7, align 4
  %22 = load ptr, ptr %6, align 8
  %23 = getelementptr inbounds nuw %struct.Tamarama, ptr %22, i32 0, i32 0
  %24 = load i32, ptr %23, align 32
  %25 = icmp eq i32 %21, %24
  br i1 %25, label %26, label %27

26:                                               ; preds = %2
  store i8 1, ptr %3, align 1
  store i32 1, ptr %8, align 4
  br label %37

27:                                               ; preds = %2
  call void @llvm.lifetime.start.p0(i64 8, ptr %9) #5
  %28 = load ptr, ptr %6, align 8
  %29 = load i32, ptr %7, align 4
  %30 = call ptr @getSubEngine(ptr noundef %28, i32 noundef %29)
  store ptr %30, ptr %9, align 8
  call void @llvm.lifetime.start.p0(i64 344, ptr %10) #5
  %31 = load ptr, ptr %6, align 8
  %32 = load ptr, ptr %9, align 8
  %33 = load ptr, ptr %5, align 8
  %34 = load i32, ptr %7, align 4
  call void @copyQueue(ptr noundef %31, ptr noundef %32, ptr noundef %33, ptr noundef %10, i32 noundef %34)
  %35 = load ptr, ptr %9, align 8
  %36 = call signext i8 @nfaReportCurrentMatches(ptr noundef %35, ptr noundef %10)
  store i8 %36, ptr %3, align 1
  store i32 1, ptr %8, align 4
  call void @llvm.lifetime.end.p0(i64 344, ptr %10) #5
  call void @llvm.lifetime.end.p0(i64 8, ptr %9) #5
  br label %37

37:                                               ; preds = %27, %26
  call void @llvm.lifetime.end.p0(i64 4, ptr %7) #5
  call void @llvm.lifetime.end.p0(i64 8, ptr %6) #5
  %38 = load i8, ptr %3, align 1
  ret i8 %38
}