; Function Attrs: nounwind uwtable
define hidden signext i8 @nfaExecTamarama_reportCurrent(ptr noundef %0, ptr noundef captures(none) %1) local_unnamed_addr #0 {
  %3 = alloca %struct.mq, align 8
  %4 = getelementptr inbounds nuw i8, ptr %0, i64 64
  %5 = getelementptr inbounds nuw i8, ptr %1, i64 24
  %6 = load ptr, ptr %5, align 8
  %7 = getelementptr inbounds nuw i8, ptr %0, i64 68
  %8 = load i8, ptr %7, align 4
  switch i8 %8, label %loadActiveIdx.exit [
    i8 4, label %9
    i8 3, label %11
    i8 2, label %19
    i8 1, label %22
  ]

9:                                                ; preds = %2
  %10 = load i32, ptr %6, align 1
  br label %loadActiveIdx.exit

11:                                               ; preds = %2
  %12 = load i16, ptr %6, align 1
  %13 = zext i16 %12 to i32
  %14 = getelementptr inbounds nuw i8, ptr %6, i64 2
  %15 = load i8, ptr %14, align 1
  %16 = zext i8 %15 to i32
  %17 = shl nuw nsw i32 %16, 16
  %18 = or disjoint i32 %17, %13
  br label %loadActiveIdx.exit

19:                                               ; preds = %2
  %20 = load i16, ptr %6, align 1
  %21 = zext i16 %20 to i32
  br label %loadActiveIdx.exit

22:                                               ; preds = %2
  %23 = load i8, ptr %6, align 1
  %24 = zext i8 %23 to i32
  br label %loadActiveIdx.exit

loadActiveIdx.exit:                               ; preds = %2, %9, %11, %19, %22
  %.0.i.i = phi i32 [ %24, %22 ], [ %21, %19 ], [ %18, %11 ], [ %10, %9 ], [ 0, %2 ]
  %25 = load i32, ptr %4, align 32
  %26 = icmp eq i32 %.0.i.i, %25
  br i1 %26, label %81, label %27

27:                                               ; preds = %loadActiveIdx.exit
  %28 = getelementptr inbounds nuw i8, ptr %0, i64 96
  %29 = zext i32 %25 to i64
  %30 = shl nuw nsw i64 %29, 2
  %31 = getelementptr inbounds nuw i8, ptr %28, i64 %30
  %32 = zext i32 %.0.i.i to i64
  %33 = getelementptr inbounds nuw i32, ptr %31, i64 %32
  %34 = load i32, ptr %33, align 4
  %35 = zext i32 %34 to i64
  %36 = getelementptr inbounds nuw i8, ptr %4, i64 %35
  call void @llvm.lifetime.start.p0(i64 344, ptr nonnull %3) #7
  %37 = getelementptr inbounds nuw i8, ptr %1, i64 16
  %38 = load ptr, ptr %37, align 8
  %39 = getelementptr inbounds nuw i8, ptr %3, i64 16
  store ptr %38, ptr %39, align 8
  %40 = zext i8 %8 to i64
  %41 = getelementptr inbounds nuw i8, ptr %6, i64 %40
  %42 = getelementptr inbounds nuw i8, ptr %3, i64 24
  store ptr %41, ptr %42, align 8
  %43 = getelementptr inbounds nuw i8, ptr %1, i64 32
  %44 = load i64, ptr %43, align 8
  %45 = getelementptr inbounds nuw i8, ptr %3, i64 32
  store i64 %44, ptr %45, align 8
  %46 = getelementptr inbounds nuw i8, ptr %1, i64 40
  %47 = load ptr, ptr %46, align 8
  %48 = getelementptr inbounds nuw i8, ptr %3, i64 40
  store ptr %47, ptr %48, align 8
  %49 = getelementptr inbounds nuw i8, ptr %1, i64 48
  %50 = load i64, ptr %49, align 8
  %51 = getelementptr inbounds nuw i8, ptr %3, i64 48
  store i64 %50, ptr %51, align 8
  %52 = getelementptr inbounds nuw i8, ptr %1, i64 56
  %53 = load ptr, ptr %52, align 8
  %54 = getelementptr inbounds nuw i8, ptr %3, i64 56
  store ptr %53, ptr %54, align 8
  %55 = getelementptr inbounds nuw i8, ptr %1, i64 64
  %56 = load i64, ptr %55, align 8
  %57 = getelementptr inbounds nuw i8, ptr %3, i64 64
  store i64 %56, ptr %57, align 8
  %58 = getelementptr inbounds nuw i8, ptr %1, i64 88
  %59 = load ptr, ptr %58, align 8
  %60 = getelementptr inbounds nuw i8, ptr %3, i64 88
  store ptr %59, ptr %60, align 8
  %61 = getelementptr inbounds nuw i8, ptr %1, i64 96
  %62 = load ptr, ptr %61, align 8
  %63 = getelementptr inbounds nuw i8, ptr %3, i64 96
  store ptr %62, ptr %63, align 8
  %64 = getelementptr inbounds nuw i8, ptr %1, i64 72
  %65 = load ptr, ptr %64, align 8
  %66 = getelementptr inbounds nuw i8, ptr %3, i64 72
  store ptr %65, ptr %66, align 8
  %67 = getelementptr inbounds nuw i8, ptr %1, i64 80
  %68 = load i8, ptr %67, align 8
  %69 = getelementptr inbounds nuw i8, ptr %3, i64 80
  store i8 %68, ptr %69, align 8
  %70 = getelementptr inbounds nuw i8, ptr %1, i64 8
  %71 = load i32, ptr %70, align 8
  %72 = add i32 %71, 1
  store i32 %72, ptr %70, align 8
  %73 = getelementptr inbounds nuw i8, ptr %3, i64 8
  store i32 %71, ptr %73, align 8
  %74 = getelementptr inbounds nuw i8, ptr %3, i64 104
  %75 = zext i32 %71 to i64
  %76 = getelementptr inbounds nuw [10 x %struct.mq_item], ptr %74, i64 0, i64 %75
  %77 = getelementptr inbounds nuw i8, ptr %1, i64 104
  %78 = getelementptr inbounds nuw [10 x %struct.mq_item], ptr %77, i64 0, i64 %75
  call void @llvm.memcpy.p0.p0.i64(ptr noundef nonnull align 8 dereferenceable(24) %76, ptr noundef nonnull align 8 dereferenceable(24) %78, i64 24, i1 false)
  %79 = getelementptr inbounds nuw i8, ptr %3, i64 12
  store i32 %72, ptr %79, align 4
  call fastcc void @copyQueueItems(ptr noundef nonnull readonly %4, ptr noundef nonnull readonly %36, ptr noundef nonnull %1, ptr noundef nonnull %3, i32 noundef %.0.i.i)
  store i32 %71, ptr %70, align 8
  %80 = call signext i8 @nfaReportCurrentMatches(ptr noundef nonnull %36, ptr noundef nonnull %3) #7
  call void @llvm.lifetime.end.p0(i64 344, ptr nonnull %3) #7
  br label %81

81:                                               ; preds = %loadActiveIdx.exit, %27
  %.0 = phi i8 [ %80, %27 ], [ 1, %loadActiveIdx.exit ]
  ret i8 %.0
}